Certificate:
    Data:
        Version: 3 (0x2)
        Serial Number: 1 (0x1)
        Signature Algorithm: sha1WithRSAEncryption
        Issuer: C=IT, O=LISIT S.p.A., OU=Servizio di certificazione, CN=LISIT CA di Servizio
        Validity
            Not Before: Sep  2 14:59:48 2004 GMT
            Not After : Sep  2 14:58:04 2016 GMT
        Subject: C=IT, O=LISIT S.p.A., OU=Servizio di certificazione, CN=LISIT CA di Servizio
        Subject Public Key Info:
            Public Key Algorithm: rsaEncryption
            RSA Public Key: (2048 bit)
                Modulus (2048 bit):
                    00:bf:bd:bd:92:6f:71:22:0a:ee:d3:40:ed:ba:47:
                    e4:94:33:b2:07:4d:11:09:31:43:2a:cb:5e:3c:99:
                    c7:44:7b:d6:99:f6:46:3b:33:a6:6d:71:9e:33:b1:
                    cd:e6:19:3d:77:65:60:79:38:f4:2c:2f:bf:b5:cb:
                    22:b9:fc:19:c8:7a:7d:22:99:49:59:ce:16:01:6d:
                    4a:8b:4e:4b:ce:2b:22:58:48:e4:49:96:b2:99:e0:
                    17:ba:4a:6d:4d:f7:d2:f1:3e:bf:c6:e5:c9:24:66:
                    ae:47:db:2b:c5:b7:c5:c1:69:09:14:34:d0:09:06:
                    4b:09:6e:ee:cd:3f:b9:16:05:17:db:be:27:1d:af:
                    ed:90:09:ee:07:8d:48:8c:2c:45:2a:1f:1a:bf:5f:
                    c7:75:c2:11:41:1d:11:a5:b5:c7:c4:7d:7e:fa:fc:
                    b2:69:33:06:b5:0d:44:7c:ac:97:c5:0f:86:d5:2a:
                    32:19:14:6f:47:ba:03:7d:60:09:d8:9f:33:f6:95:
                    5a:c4:72:e4:5e:72:ec:92:79:f8:ab:bd:29:84:91:
                    63:00:41:5c:be:5e:7f:c3:c0:ea:ff:6d:d3:ec:ac:
                    96:ad:ab:2c:87:ba:c1:e5:7a:9e:85:3c:d5:66:7d:
                    b6:e8:10:5f:f7:7a:a4:67:31:b4:6b:4f:44:7c:ac:
                    ea:41
                Exponent: 65537 (0x10001)
        X509v3 extensions:
            X509v3 Basic Constraints: critical
                CA:TRUE, pathlen:0
            X509v3 Certificate Policies: 
                Policy: 1.3.6.1.4.1.7790.19.2
                  CPS: http://www.lisit.it/firmadigitale

            X509v3 CRL Distribution Points: 
                URI:ldap://ldap.crs.lombardia.it/cn%3dLISIT%20CA%20di%20Servizio,ou%3dServizio%20di%20certificazione,o%3dLISIT%20S.p.A.,c%3dIT?certificateRevocationList?base

            X509v3 Key Usage: critical
                Certificate Sign, CRL Sign
            X509v3 Subject Key Identifier: 
                84:CD:B1:2F:1C:AB:D0:8B:CF:7A:FE:C1:BC:57:B0:8A:1D:0E:85:0B
    Signature Algorithm: sha1WithRSAEncryption
        6f:a7:20:6a:d1:3c:bb:6d:00:0d:ed:07:d1:e4:e5:7d:ce:7c:
        08:e6:14:93:e4:77:51:a0:9b:67:17:39:3a:84:3e:cc:41:ee:
        05:f1:b9:53:6d:44:28:7c:cf:f0:fe:f3:7a:27:ab:53:71:dd:
        84:0d:ad:b3:2a:11:d3:e0:9a:47:39:a8:6b:b9:5c:52:5e:c0:
        7b:99:6a:72:49:b6:3a:45:6a:e1:d5:a2:f2:2e:57:e1:9c:33:
        30:4f:97:f8:ae:db:af:0b:07:36:fe:f4:05:8e:fc:6c:44:f0:
        ce:c0:cb:45:df:31:6c:23:b5:2b:64:e9:78:3f:94:31:4e:f1:
        33:81:ac:cb:ad:a7:0f:13:51:4d:9a:0b:51:9b:5d:09:88:68:
        ba:32:49:f2:d0:6e:8e:e4:a2:94:f9:e8:6b:cf:c2:df:b8:e4:
        9c:ee:ba:69:ca:f9:96:59:77:57:ae:0d:63:dc:5e:17:20:63:
        7c:6c:ca:fc:c7:14:cd:1b:bd:ff:4e:37:71:c8:10:82:61:a3:
        0a:5e:3c:d7:b0:a9:bb:d3:dc:a8:ab:4b:47:71:31:44:0b:92:
        5e:d3:69:c3:8a:46:89:96:6e:c9:01:a8:55:8e:17:30:bd:49:
        15:a3:6f:bb:cf:91:4d:11:e4:db:04:b1:84:4b:ca:f7:a4:41:
        2e:7e:2b:d8
-----BEGIN CERTIFICATE-----
MIIEkDCCA3igAwIBAgIBATANBgkqhkiG9w0BAQUFADBoMQswCQYDVQQGEwJJVDEV
MBMGA1UEChMMTElTSVQgUy5wLkEuMSMwIQYDVQQLExpTZXJ2aXppbyBkaSBjZXJ0
aWZpY2F6aW9uZTEdMBsGA1UEAxMUTElTSVQgQ0EgZGkgU2Vydml6aW8wHhcNMDQw
OTAyMTQ1OTQ4WhcNMTYwOTAyMTQ1ODA0WjBoMQswCQYDVQQGEwJJVDEVMBMGA1UE
ChMMTElTSVQgUy5wLkEuMSMwIQYDVQQLExpTZXJ2aXppbyBkaSBjZXJ0aWZpY2F6
aW9uZTEdMBsGA1UEAxMUTElTSVQgQ0EgZGkgU2Vydml6aW8wggEiMA0GCSqGSIb3
DQEBAQUAA4IBDwAwggEKAoIBAQC/vb2Sb3EiCu7TQO26R+SUM7IHTREJMUMqy148
mcdEe9aZ9kY7M6ZtcZ4zsc3mGT13ZWB5OPQsL7+1yyK5/BnIen0imUlZzhYBbUqL
TkvOKyJYSORJlrKZ4Be6Sm1N99LxPr/G5ckkZq5H2yvFt8XBaQkUNNAJBksJbu7N
P7kWBRfbvicdr+2QCe4HjUiMLEUqHxq/X8d1whFBHRGltcfEfX76/LJpMwa1DUR8
rJfFD4bVKjIZFG9HugN9YAnYnzP2lVrEcuRecuySefirvSmEkWMAQVy+Xn/DwOr/
bdPsrJatqyyHusHlep6FPNVmfbboEF/3eqRnMbRrT0R8rOpBAgMBAAGjggFDMIIB
PzASBgNVHRMBAf8ECDAGAQH/AgEAMEcGA1UdIARAMD4wPAYJKwYBBAG8bhMCMC8w
LQYIKwYBBQUHAgEWIWh0dHA6Ly93d3cubGlzaXQuaXQvZmlybWFkaWdpdGFsZTCB
sAYDVR0fBIGoMIGlMIGioIGfoIGchoGZbGRhcDovL2xkYXAuY3JzLmxvbWJhcmRp
YS5pdC9jbiUzZExJU0lUJTIwQ0ElMjBkaSUyMFNlcnZpemlvLG91JTNkU2Vydml6
aW8lMjBkaSUyMGNlcnRpZmljYXppb25lLG8lM2RMSVNJVCUyMFMucC5BLixjJTNk
SVQ/Y2VydGlmaWNhdGVSZXZvY2F0aW9uTGlzdD9iYXNlMA4GA1UdDwEB/wQEAwIB
BjAdBgNVHQ4EFgQUhM2xLxyr0IvPev7BvFewih0OhQswDQYJKoZIhvcNAQEFBQAD
ggEBAG+nIGrRPLttAA3tB9Hk5X3OfAjmFJPkd1Ggm2cXOTqEPsxB7gXxuVNtRCh8
z/D+83onq1Nx3YQNrbMqEdPgmkc5qGu5XFJewHuZanJJtjpFauHVovIuV+GcMzBP
l/iu268LBzb+9AWO/GxE8M7Ay0XfMWwjtStk6Xg/lDFO8TOBrMutpw8TUU2aC1Gb
XQmIaLoySfLQbo7kopT56GvPwt+45JzuumnK+ZZZd1euDWPcXhcgY3xsyvzHFM0b
vf9ON3HIEIJhowpePNewqbvT3KirS0dxMUQLkl7TacOKRomWbskBqFWOFzC9SRWj
b7vPkU0R5NsEsYRLyvekQS5+K9g=
-----END CERTIFICATE-----
