Certificate:
    Data:
        Version: 3 (0x2)
        Serial Number: 1 (0x1)
        Signature Algorithm: sha1WithRSAEncryption
        Issuer: C=IT, O=LISIT S.p.A., OU=Servizio di certificazione, CN=LISIT CA Servizio di Integrazione
        Validity
            Not Before: Mar  3 08:51:00 2004 GMT
            Not After : Mar  3 08:50:09 2016 GMT
        Subject: C=IT, O=LISIT S.p.A., OU=Servizio di certificazione, CN=LISIT CA Servizio di Integrazione
        Subject Public Key Info:
            Public Key Algorithm: rsaEncryption
            RSA Public Key: (2048 bit)
                Modulus (2048 bit):
                    00:d5:1e:be:d4:74:1c:fc:e9:6a:6d:4b:78:3b:cb:
                    6c:64:32:0f:d7:95:fc:4d:25:96:6b:bb:8c:9d:6b:
                    b1:c8:97:97:91:bf:a0:ba:38:e2:c0:e1:af:cb:06:
                    c7:38:c5:15:7a:f0:51:ec:82:ba:a3:74:1c:f5:a7:
                    7b:4c:07:dd:d9:8c:64:b3:0b:3a:3a:87:33:45:e5:
                    74:04:5c:13:c2:dc:3e:0b:bc:ed:51:fb:52:19:f5:
                    fd:8f:de:cf:9b:8b:a9:57:aa:e5:18:68:f1:85:08:
                    fa:11:d7:d8:09:3f:dd:ea:60:6a:98:28:54:d0:de:
                    e4:ec:17:df:3d:53:86:d9:ee:25:3c:fd:f4:11:b7:
                    9c:93:e1:58:ce:86:b2:b2:97:38:3b:5e:1f:cd:5f:
                    d5:86:74:9e:ce:60:36:e2:e1:f1:6a:a8:33:1e:77:
                    b4:e4:48:fa:36:ff:99:c8:c4:1b:5f:05:61:75:04:
                    3f:47:71:e9:89:22:f7:d7:9b:e4:9e:47:36:6c:1c:
                    6d:f3:58:27:93:d8:bd:ee:b5:7e:d1:60:4b:c3:18:
                    c9:80:51:11:af:8c:c2:29:f8:6e:c2:a7:36:1c:ce:
                    c0:b7:61:cc:02:12:37:20:9f:d7:e0:c9:50:8a:c9:
                    19:f1:2f:18:0c:24:e2:42:c6:30:ff:a1:77:dd:fe:
                    49:bf
                Exponent: 65537 (0x10001)
        X509v3 extensions:
            X509v3 Basic Constraints: critical
                CA:TRUE, pathlen:0
            X509v3 Certificate Policies: 
                Policy: 1.3.6.1.4.1.7790.21.2
                  CPS: http://www.lisit.it/ca

            X509v3 CRL Distribution Points: 
                URI:ldap://ldap.crs.lombardia.it/cn%3dLISIT%20CA%20Servizio%20di%20Integrazione,ou%3dServizio%20di%20certificazione,o%3dLISIT%20S.p.A.,c%3dIT?certificateRevocationList?base

            X509v3 Key Usage: critical
                Certificate Sign, CRL Sign
            X509v3 Subject Key Identifier: 
                CD:EA:67:E3:A2:89:D4:21:CF:7D:B4:74:18:A9:68:BF:51:66:9A:8C
    Signature Algorithm: sha1WithRSAEncryption
        03:43:59:46:9e:34:0c:fb:ec:74:c2:ed:d0:ff:67:70:15:e1:
        fb:8b:32:62:65:23:78:19:ac:27:f0:af:3d:d1:59:8a:88:1c:
        57:8a:3d:07:54:d7:ad:d5:8e:ae:43:b9:53:31:53:70:3e:34:
        2c:92:a0:28:2d:36:61:a8:b8:f1:3c:ef:e1:38:ad:8d:f4:4e:
        e7:87:27:51:4c:a5:82:d7:06:f1:d9:0b:11:66:70:14:33:fe:
        92:2f:fd:26:a1:b3:9e:3a:99:90:46:7f:13:c6:fa:cb:bc:d6:
        bf:12:dc:f5:b0:a5:1f:bf:07:94:03:83:b6:2b:ee:28:cb:4d:
        2f:9f:de:37:37:9b:0a:2b:9a:0c:2d:a4:ea:a8:48:db:51:b3:
        a8:fe:13:20:e5:64:41:31:67:82:0c:ca:43:02:aa:fa:f4:06:
        1e:26:eb:c1:93:86:85:5e:e1:f7:1a:7d:b0:86:a1:25:ac:b2:
        01:54:25:8d:27:cb:91:14:92:aa:59:28:8b:60:09:4b:a2:c9:
        54:c8:4b:69:77:19:b3:99:62:b1:7b:39:6d:e2:50:77:1f:8b:
        84:0f:d8:9e:41:5e:20:be:ed:e0:ad:e3:a6:3a:30:80:b0:f9:
        f7:d3:b8:49:9f:eb:66:f9:56:38:64:35:da:37:a0:70:e0:c7:
        68:22:79:e5
-----BEGIN CERTIFICATE-----
MIIErjCCA5agAwIBAgIBATANBgkqhkiG9w0BAQUFADB1MQswCQYDVQQGEwJJVDEV
MBMGA1UEChMMTElTSVQgUy5wLkEuMSMwIQYDVQQLExpTZXJ2aXppbyBkaSBjZXJ0
aWZpY2F6aW9uZTEqMCgGA1UEAxMhTElTSVQgQ0EgU2Vydml6aW8gZGkgSW50ZWdy
YXppb25lMB4XDTA0MDMwMzA4NTEwMFoXDTE2MDMwMzA4NTAwOVowdTELMAkGA1UE
BhMCSVQxFTATBgNVBAoTDExJU0lUIFMucC5BLjEjMCEGA1UECxMaU2Vydml6aW8g
ZGkgY2VydGlmaWNhemlvbmUxKjAoBgNVBAMTIUxJU0lUIENBIFNlcnZpemlvIGRp
IEludGVncmF6aW9uZTCCASIwDQYJKoZIhvcNAQEBBQADggEPADCCAQoCggEBANUe
vtR0HPzpam1LeDvLbGQyD9eV/E0llmu7jJ1rsciXl5G/oLo44sDhr8sGxzjFFXrw
UeyCuqN0HPWne0wH3dmMZLMLOjqHM0XldARcE8LcPgu87VH7Uhn1/Y/ez5uLqVeq
5Rho8YUI+hHX2Ak/3epgapgoVNDe5OwX3z1ThtnuJTz99BG3nJPhWM6GsrKXODte
H81f1YZ0ns5gNuLh8WqoMx53tORI+jb/mcjEG18FYXUEP0dx6Yki99eb5J5HNmwc
bfNYJ5PYve61ftFgS8MYyYBREa+Mwin4bsKnNhzOwLdhzAISNyCf1+DJUIrJGfEv
GAwk4kLGMP+hd93+Sb8CAwEAAaOCAUcwggFDMBIGA1UdEwEB/wQIMAYBAf8CAQAw
PAYDVR0gBDUwMzAxBgkrBgEEAbxuFQIwJDAiBggrBgEFBQcCARYWaHR0cDovL3d3
dy5saXNpdC5pdC9jYTCBvwYDVR0fBIG3MIG0MIGxoIGuoIGrhoGobGRhcDovL2xk
YXAuY3JzLmxvbWJhcmRpYS5pdC9jbiUzZExJU0lUJTIwQ0ElMjBTZXJ2aXppbyUy
MGRpJTIwSW50ZWdyYXppb25lLG91JTNkU2Vydml6aW8lMjBkaSUyMGNlcnRpZmlj
YXppb25lLG8lM2RMSVNJVCUyMFMucC5BLixjJTNkSVQ/Y2VydGlmaWNhdGVSZXZv
Y2F0aW9uTGlzdD9iYXNlMA4GA1UdDwEB/wQEAwIBBjAdBgNVHQ4EFgQUzepn46KJ
1CHPfbR0GKlov1FmmowwDQYJKoZIhvcNAQEFBQADggEBAANDWUaeNAz77HTC7dD/
Z3AV4fuLMmJlI3gZrCfwrz3RWYqIHFeKPQdU163Vjq5DuVMxU3A+NCySoCgtNmGo
uPE87+E4rY30TueHJ1FMpYLXBvHZCxFmcBQz/pIv/Sahs546mZBGfxPG+su81r8S
3PWwpR+/B5QDg7Yr7ijLTS+f3jc3mwormgwtpOqoSNtRs6j+EyDlZEExZ4IMykMC
qvr0Bh4m68GThoVe4fcafbCGoSWssgFUJY0ny5EUkqpZKItgCUuiyVTIS2l3GbOZ
YrF7OW3iUHcfi4QP2J5BXiC+7eCt46Y6MICw+ffTuEmf62b5VjhkNdo3oHDgx2gi
eeU=
-----END CERTIFICATE-----
