Certificate:
    Data:
        Version: 3 (0x2)
        Serial Number: 1 (0x1)
        Signature Algorithm: sha1WithRSAEncryption
        Issuer: C=IT, O=Lombardia Informatica S.p.A., OU=Servizio di certificazione, CN=CA di Servizio
        Validity
            Not Before: Oct 11 09:44:38 2010 GMT
            Not After : Oct 11 09:44:38 2022 GMT
        Subject: C=IT, O=Lombardia Informatica S.p.A., OU=Servizio di certificazione, CN=CA di Servizio
        Subject Public Key Info:
            Public Key Algorithm: rsaEncryption
            RSA Public Key: (2048 bit)
                Modulus (2048 bit):
                    00:c5:f2:d0:4c:f0:7d:81:8c:ea:5e:be:6a:dc:a9:
                    25:1e:8f:71:87:02:12:76:90:c0:80:17:49:85:ba:
                    49:eb:5e:e4:25:5b:55:c2:71:9c:06:cd:34:2f:19:
                    9b:aa:29:1f:0a:a7:ec:fb:14:0c:39:3c:4a:68:97:
                    ce:b2:58:ef:ea:e1:46:e3:2e:7f:e3:0d:c6:54:9e:
                    ae:3a:3f:9f:13:17:f2:94:78:59:2d:af:49:b9:a5:
                    41:72:c4:e0:a5:58:0b:09:ea:5f:21:b3:e3:0d:e1:
                    cf:ae:5e:f0:ce:d2:30:1c:62:c1:4d:b1:58:4e:af:
                    cd:c5:e6:dd:2b:00:0f:99:22:97:df:c6:98:d8:b1:
                    39:46:13:8c:4b:3f:6d:8e:1b:3f:72:ae:8b:94:c3:
                    39:cc:9f:a3:62:ff:92:2b:a4:d8:79:b2:36:fa:1c:
                    aa:cb:4d:d7:49:98:76:3e:6d:92:81:73:52:89:9d:
                    ce:b6:c8:97:e7:a8:0b:bd:da:50:96:7f:25:c1:8b:
                    61:d7:5a:b9:4a:60:db:2a:76:23:35:f5:9d:f2:72:
                    f5:f9:ca:e2:27:e6:a9:e1:5e:db:8f:11:77:22:50:
                    8b:b2:31:29:ed:ba:78:9f:1b:f3:02:76:2b:2d:95:
                    93:1b:17:b8:92:87:d0:90:70:1f:ce:1f:92:49:e9:
                    c5:5f
                Exponent: 65537 (0x10001)
        X509v3 extensions:
            X509v3 Basic Constraints: critical
                CA:TRUE, pathlen:0
            X509v3 Certificate Policies: 
                Policy: 1.3.6.1.4.1.7790.19.4
                  CPS: http://www.lispa.it/CA/CPS

            X509v3 CRL Distribution Points: 
                URI:ldap://ldap.crs.lombardia.it/cn%3DCA%20di%20Servizio%2Cou%3DServizio%20di%20certificazione%2Co%3DLombardia%20Informatica%20S.p.A.%2Cc%3DIT?certificateRevocationList
                URI:http://ca.lispa.it/CASRV/CRL

            X509v3 Key Usage: critical
                Certificate Sign, CRL Sign
            X509v3 Subject Key Identifier: 
                B2:EB:86:57:9B:F8:36:7E:E2:8E:5A:72:90:F9:9E:30:16:DB:6E:E3
    Signature Algorithm: sha1WithRSAEncryption
        4d:7a:5d:7d:0d:be:8d:4b:72:37:70:6d:61:b0:af:78:8c:42:
        b3:40:59:71:a8:c7:ac:a6:5c:45:fa:ed:d9:34:f8:fb:a7:e3:
        ad:25:24:cf:03:8b:b6:85:9c:80:3c:32:b8:19:e3:b6:d9:f3:
        df:f8:c4:1a:c8:7b:09:21:7e:d4:77:1f:7b:81:78:cd:c1:37:
        81:bc:bd:76:ca:1a:ab:6a:15:ee:4e:e7:3c:1d:21:9c:a2:99:
        ad:2c:0f:4e:d0:66:d2:c2:58:e6:6f:4d:b7:9d:51:41:ce:93:
        aa:97:66:ec:7b:43:77:98:d7:f1:b7:83:63:07:06:af:5a:32:
        d7:66:07:a6:e0:b6:ce:35:81:81:b1:88:0d:bb:80:c0:5c:e8:
        0e:80:1a:9e:7b:7a:3e:6b:9e:d8:f1:57:6a:cb:d8:16:03:dc:
        44:39:e0:0c:7c:f7:a4:b4:08:60:fb:64:3c:4d:a0:0f:a0:b3:
        4e:e6:ed:4f:62:b4:b1:f5:cb:8d:c0:21:72:35:88:c5:ae:c1:
        57:33:97:3a:da:c3:ae:f2:14:cf:c3:0e:98:54:7f:13:6f:2d:
        b0:a1:0e:00:3c:79:81:80:2a:2c:e9:49:54:c9:6d:2c:28:9f:
        ff:c9:a5:cb:d8:dd:bd:96:ac:93:d2:7d:a5:cc:e2:c3:26:8b:
        89:df:f4:2a
-----BEGIN CERTIFICATE-----
MIIEzDCCA7SgAwIBAgIBATANBgkqhkiG9w0BAQUFADByMQswCQYDVQQGEwJJVDEl
MCMGA1UECgwcTG9tYmFyZGlhIEluZm9ybWF0aWNhIFMucC5BLjEjMCEGA1UECwwa
U2Vydml6aW8gZGkgY2VydGlmaWNhemlvbmUxFzAVBgNVBAMMDkNBIGRpIFNlcnZp
emlvMB4XDTEwMTAxMTA5NDQzOFoXDTIyMTAxMTA5NDQzOFowcjELMAkGA1UEBhMC
SVQxJTAjBgNVBAoMHExvbWJhcmRpYSBJbmZvcm1hdGljYSBTLnAuQS4xIzAhBgNV
BAsMGlNlcnZpemlvIGRpIGNlcnRpZmljYXppb25lMRcwFQYDVQQDDA5DQSBkaSBT
ZXJ2aXppbzCCASIwDQYJKoZIhvcNAQEBBQADggEPADCCAQoCggEBAMXy0EzwfYGM
6l6+atypJR6PcYcCEnaQwIAXSYW6Sete5CVbVcJxnAbNNC8Zm6opHwqn7PsUDDk8
SmiXzrJY7+rhRuMuf+MNxlSerjo/nxMX8pR4WS2vSbmlQXLE4KVYCwnqXyGz4w3h
z65e8M7SMBxiwU2xWE6vzcXm3SsAD5kil9/GmNixOUYTjEs/bY4bP3Kui5TDOcyf
o2L/kiuk2HmyNvocqstN10mYdj5tkoFzUomdzrbIl+eoC73aUJZ/JcGLYddauUpg
2yp2IzX1nfJy9fnK4ifmqeFe248RdyJQi7IxKe26eJ8b8wJ2Ky2VkxsXuJKH0JBw
H84fkknpxV8CAwEAAaOCAWswggFnMBIGA1UdEwEB/wQIMAYBAf8CAQAwQAYDVR0g
BDkwNzA1BgkrBgEEAbxuEwQwKDAmBggrBgEFBQcCARYaaHR0cDovL3d3dy5saXNw
YS5pdC9DQS9DUFMwgd8GA1UdHwSB1zCB1DCBraCBqqCBp4aBpGxkYXA6Ly9sZGFw
LmNycy5sb21iYXJkaWEuaXQvY24lM0RDQSUyMGRpJTIwU2Vydml6aW8lMkNvdSUz
RFNlcnZpemlvJTIwZGklMjBjZXJ0aWZpY2F6aW9uZSUyQ28lM0RMb21iYXJkaWEl
MjBJbmZvcm1hdGljYSUyMFMucC5BLiUyQ2MlM0RJVD9jZXJ0aWZpY2F0ZVJldm9j
YXRpb25MaXN0MCKgIKAehhxodHRwOi8vY2EubGlzcGEuaXQvQ0FTUlYvQ1JMMA4G
A1UdDwEB/wQEAwIBBjAdBgNVHQ4EFgQUsuuGV5v4Nn7ijlpykPmeMBbbbuMwDQYJ
KoZIhvcNAQEFBQADggEBAE16XX0Nvo1LcjdwbWGwr3iMQrNAWXGox6ymXEX67dk0
+Pun460lJM8Di7aFnIA8MrgZ47bZ89/4xBrIewkhftR3H3uBeM3BN4G8vXbKGqtq
Fe5O5zwdIZyima0sD07QZtLCWOZvTbedUUHOk6qXZux7Q3eY1/G3g2MHBq9aMtdm
B6bgts41gYGxiA27gMBc6A6AGp57ej5rntjxV2rL2BYD3EQ54Ax896S0CGD7ZDxN
oA+gs07m7U9itLH1y43AIXI1iMWuwVczlzraw67yFM/DDphUfxNvLbChDgA8eYGA
KizpSVTJbSwon//JpcvY3b2WrJPSfaXM4sMmi4nf9Co=
-----END CERTIFICATE-----
